; Function Attrs: nounwind uwtable
define internal void @bufferevent_finalize_cb_(ptr readnone captures(none) %0, ptr noundef %1) #0 {
  %3 = alloca %union.bufferevent_ctrl_data, align 8
  %4 = getelementptr inbounds nuw i8, ptr %1, i64 448
  %5 = load ptr, ptr %4, align 8
  %.not = icmp eq ptr %5, null
  br i1 %.not, label %.thread, label %6

.thread:                                          ; preds = %2
  call void @llvm.lifetime.start.p0(i64 8, ptr nonnull %3) #7
  store ptr null, ptr %3, align 8
  br label %12

6:                                                ; preds = %2
  %7 = load ptr, ptr getelementptr inbounds nuw (i8, ptr @evthread_lock_fns_, i64 24), align 8
  %8 = tail call i32 %7(i32 noundef 0, ptr noundef nonnull %5) #7
  %.pr = load ptr, ptr %4, align 8
  call void @llvm.lifetime.start.p0(i64 8, ptr nonnull %3) #7
  store ptr null, ptr %3, align 8
  %.not.i = icmp eq ptr %.pr, null
  br i1 %.not.i, label %12, label %9

9:                                                ; preds = %6
  %10 = load ptr, ptr getelementptr inbounds nuw (i8, ptr @evthread_lock_fns_, i64 24), align 8
  %11 = tail call i32 %10(i32 noundef 0, ptr noundef nonnull %.pr) #7
  br label %12

12:                                               ; preds = %.thread, %9, %6
  %13 = getelementptr inbounds nuw i8, ptr %1, i64 8
  %14 = load ptr, ptr %13, align 8
  %15 = getelementptr inbounds nuw i8, ptr %14, i64 64
  %16 = load ptr, ptr %15, align 8
  %.not12.i = icmp eq ptr %16, null
  br i1 %.not12.i, label %20, label %17

17:                                               ; preds = %12
  %18 = call i32 %16(ptr noundef nonnull %1, i32 noundef 2, ptr noundef nonnull %3) #7
  %19 = icmp slt i32 %18, 0
  br label %20

20:                                               ; preds = %17, %12
  %.0.i = phi i1 [ %19, %17 ], [ true, %12 ]
  %21 = load ptr, ptr %4, align 8
  %.not13.i = icmp eq ptr %21, null
  br i1 %.not13.i, label %bufferevent_get_underlying.exit, label %22

22:                                               ; preds = %20
  %23 = load ptr, ptr getelementptr inbounds nuw (i8, ptr @evthread_lock_fns_, i64 32), align 8
  %24 = call i32 %23(i32 noundef 0, ptr noundef nonnull %21) #7
  br label %bufferevent_get_underlying.exit

bufferevent_get_underlying.exit:                  ; preds = %20, %22
  %25 = load ptr, ptr %3, align 8
  %26 = select i1 %.0.i, ptr null, ptr %25
  call void @llvm.lifetime.end.p0(i64 8, ptr nonnull %3) #7
  %27 = load ptr, ptr %13, align 8
  %28 = getelementptr inbounds nuw i8, ptr %27, i64 40
  %29 = load ptr, ptr %28, align 8
  %.not34 = icmp eq ptr %29, null
  br i1 %.not34, label %31, label %30

30:                                               ; preds = %bufferevent_get_underlying.exit
  call void %29(ptr noundef nonnull %1) #7
  br label %31

31:                                               ; preds = %30, %bufferevent_get_underlying.exit
  %32 = getelementptr inbounds nuw i8, ptr %1, i64 256
  %33 = load ptr, ptr %32, align 8
  call void @evbuffer_free(ptr noundef %33) #7
  %34 = getelementptr inbounds nuw i8, ptr %1, i64 264
  %35 = load ptr, ptr %34, align 8
  call void @evbuffer_free(ptr noundef %35) #7
  %36 = getelementptr inbounds nuw i8, ptr %1, i64 472
  %37 = load ptr, ptr %36, align 8
  %.not35 = icmp eq ptr %37, null
  br i1 %.not35, label %45, label %38

38:                                               ; preds = %31
  %39 = getelementptr inbounds nuw i8, ptr %37, i64 16
  %40 = load ptr, ptr %39, align 8
  %.not36 = icmp eq ptr %40, null
  br i1 %.not36, label %43, label %41

41:                                               ; preds = %38
  %42 = call i32 @bufferevent_remove_from_rate_limit_group_internal_(ptr noundef nonnull %1, i32 noundef 0) #7
  %.pre = load ptr, ptr %36, align 8
  br label %43

43:                                               ; preds = %41, %38
  %44 = phi ptr [ %.pre, %41 ], [ %37, %38 ]
  call void @event_mm_free_(ptr noundef %44) #7
  store ptr null, ptr %36, align 8
  br label %45

45:                                               ; preds = %31, %43
  %46 = load ptr, ptr %4, align 8
  %.not37 = icmp eq ptr %46, null
  br i1 %.not37, label %50, label %47

47:                                               ; preds = %45
  %48 = load ptr, ptr getelementptr inbounds nuw (i8, ptr @evthread_lock_fns_, i64 32), align 8
  %49 = call i32 %48(i32 noundef 0, ptr noundef nonnull %46) #7
  br label %50

50:                                               ; preds = %47, %45
  %51 = getelementptr inbounds nuw i8, ptr %1, i64 384
  %52 = load i8, ptr %51, align 8
  %53 = and i8 %52, 1
  %.not38 = icmp eq i8 %53, 0
  br i1 %.not38, label %60, label %54

54:                                               ; preds = %50
  %55 = load ptr, ptr %4, align 8
  %56 = icmp ne ptr %55, null
  %57 = load ptr, ptr getelementptr inbounds nuw (i8, ptr @evthread_lock_fns_, i64 16), align 8
  %58 = icmp ne ptr %57, null
  %or.cond = select i1 %56, i1 %58, i1 false
  br i1 %or.cond, label %59, label %60

59:                                               ; preds = %54
  call void %57(ptr noundef nonnull %55, i32 noundef 1) #7
  br label %60

60:                                               ; preds = %54, %59, %50
  %61 = load ptr, ptr %13, align 8
  %62 = getelementptr inbounds nuw i8, ptr %61, i64 8
  %63 = load i64, ptr %62, align 8
  %64 = sub i64 0, %63
  %65 = getelementptr inbounds i8, ptr %1, i64 %64
  call void @event_mm_free_(ptr noundef %65) #7
  %.not39 = icmp eq ptr %26, null
  br i1 %.not39, label %73, label %66

66:                                               ; preds = %60
  %67 = getelementptr inbounds nuw i8, ptr %26, i64 448
  %68 = load ptr, ptr %67, align 8
  %.not.i40 = icmp eq ptr %68, null
  br i1 %.not.i40, label %bufferevent_decref.exit, label %69

69:                                               ; preds = %66
  %70 = load ptr, ptr getelementptr inbounds nuw (i8, ptr @evthread_lock_fns_, i64 24), align 8
  %71 = call i32 %70(i32 noundef 0, ptr noundef nonnull %68) #7
  br label %bufferevent_decref.exit

bufferevent_decref.exit:                          ; preds = %66, %69
  %72 = call range(i32 0, 2) i32 @bufferevent_decref_and_unlock_(ptr noundef nonnull %26)
  br label %73

73:                                               ; preds = %bufferevent_decref.exit, %60
  ret void
}